target datalayout = "e-m:e-p270:32:32-p271:32:32-p272:64:64-i64:64-i128:128-f80:128-n8:16:32:64-S128"
target triple = "x86_64-pc-linux-gnu"

%struct.epan_column_info = type { ptr, i32, ptr, ptr, ptr, %struct.col_expr_t, i32, ptr }
%struct.col_expr_t = type { ptr, ptr }
%struct.col_item_t = type { i32, ptr, ptr, ptr, i32, ptr, ptr, ptr, ptr, i32, i32, i32 }

@.str.1 = private unnamed_addr constant [1 x i8] zeroinitializer, align 1
@.str.7 = private unnamed_addr constant [20 x i8] c"epan/column-utils.c\00", align 1
@.str.9 = private unnamed_addr constant [31 x i8] c"assertion \22not reached\22 failed\00", align 1
@__func__.get_default_timestamp_precision = private unnamed_addr constant [32 x i8] c"get_default_timestamp_precision\00", align 1

; Function Attrs: nounwind uwtable
define internal i32 @get_default_timestamp_precision() #0 {
  %1 = alloca i32, align 4
  %2 = call i32 @timestamp_get_precision()
  store i32 %2, ptr %1, align 4
  %3 = load i32, ptr %1, align 4
  %4 = icmp eq i32 %3, -1
  br i1 %4, label %5, label %6

5:                                                ; preds = %0
  store i32 9, ptr %1, align 4
  br label %11

6:                                                ; preds = %0
  %7 = load i32, ptr %1, align 4
  %8 = icmp slt i32 %7, 0
  br i1 %8, label %9, label %10

9:                                                ; preds = %6
  call void (ptr, i32, ptr, i64, ptr, ptr, ...) @ws_log_fatal_full(ptr noundef @.str.1, i32 noundef 7, ptr noundef @.str.7, i64 noundef 1006, ptr noundef @__func__.get_default_timestamp_precision, ptr noundef @.str.9) #10
  unreachable

10:                                               ; preds = %6
  br label %11

11:                                               ; preds = %10, %5
  %12 = load i32, ptr %1, align 4
  %13 = icmp sgt i32 %12, 9
  br i1 %13, label %14, label %15

14:                                               ; preds = %11
  store i32 9, ptr %1, align 4
  br label %15

15:                                               ; preds = %14, %11
  %16 = load i32, ptr %1, align 4
  ret i32 %16
}

; Function Attrs: nounwind uwtable
define i32 @col_get_writable(ptr noundef %0, i32 noundef %1) #0 {
  %3 = alloca i32, align 4
  %4 = alloca ptr, align 8
  %5 = alloca i32, align 4
  %6 = alloca i32, align 4
  %7 = alloca ptr, align 8
  store ptr %0, ptr %4, align 8
  store i32 %1, ptr %5, align 4
  %8 = load ptr, ptr %4, align 8
  %9 = icmp eq ptr %8, null
  br i1 %9, label %10, label %11

10:                                               ; preds = %2
  store i32 0, ptr %3, align 4
  br label %75

11:                                               ; preds = %2
  %12 = load i32, ptr %5, align 4
  %13 = icmp eq i32 %12, -1
  br i1 %13, label %19, label %14

14:                                               ; preds = %11
  %15 = load ptr, ptr %4, align 8
  %16 = getelementptr inbounds %struct.epan_column_info, ptr %15, i32 0, i32 6
  %17 = load i32, ptr %16, align 8
  %18 = icmp eq i32 %17, 0
  br i1 %18, label %19, label %23

19:                                               ; preds = %14, %11
  %20 = load ptr, ptr %4, align 8
  %21 = getelementptr inbounds %struct.epan_column_info, ptr %20, i32 0, i32 6
  %22 = load i32, ptr %21, align 8
  store i32 %22, ptr %3, align 4
  br label %75

23:                                               ; preds = %14
  %24 = load ptr, ptr %4, align 8
  %25 = getelementptr inbounds %struct.epan_column_info, ptr %24, i32 0, i32 3
  %26 = load ptr, ptr %25, align 8
  %27 = load i32, ptr %5, align 4
  %28 = sext i32 %27 to i64
  %29 = getelementptr i32, ptr %26, i64 %28
  %30 = load i32, ptr %29, align 4
  %31 = icmp sge i32 %30, 0
  br i1 %31, label %32, label %74

32:                                               ; preds = %23
  %33 = load ptr, ptr %4, align 8
  %34 = getelementptr inbounds %struct.epan_column_info, ptr %33, i32 0, i32 3
  %35 = load ptr, ptr %34, align 8
  %36 = load i32, ptr %5, align 4
  %37 = sext i32 %36 to i64
  %38 = getelementptr i32, ptr %35, i64 %37
  %39 = load i32, ptr %38, align 4
  store i32 %39, ptr %6, align 4
  br label %40

40:                                               ; preds = %70, %32
  %41 = load i32, ptr %6, align 4
  %42 = load ptr, ptr %4, align 8
  %43 = getelementptr inbounds %struct.epan_column_info, ptr %42, i32 0, i32 4
  %44 = load ptr, ptr %43, align 8
  %45 = load i32, ptr %5, align 4
  %46 = sext i32 %45 to i64
  %47 = getelementptr i32, ptr %44, i64 %46
  %48 = load i32, ptr %47, align 4
  %49 = icmp sle i32 %41, %48
  br i1 %49, label %50, label %73

50:                                               ; preds = %40
  %51 = load ptr, ptr %4, align 8
  %52 = getelementptr inbounds %struct.epan_column_info, ptr %51, i32 0, i32 2
  %53 = load ptr, ptr %52, align 8
  %54 = load i32, ptr %6, align 4
  %55 = sext i32 %54 to i64
  %56 = getelementptr %struct.col_item_t, ptr %53, i64 %55
  store ptr %56, ptr %7, align 8
  %57 = load ptr, ptr %7, align 8
  %58 = getelementptr inbounds %struct.col_item_t, ptr %57, i32 0, i32 1
  %59 = load ptr, ptr %58, align 8
  %60 = load i32, ptr %5, align 4
  %61 = sext i32 %60 to i64
  %62 = getelementptr i32, ptr %59, i64 %61
  %63 = load i32, ptr %62, align 4
  %64 = icmp ne i32 %63, 0
  br i1 %64, label %65, label %69

65:                                               ; preds = %50
  %66 = load ptr, ptr %7, align 8
  %67 = getelementptr inbounds %struct.col_item_t, ptr %66, i32 0, i32 10
  %68 = load i32, ptr %67, align 4
  store i32 %68, ptr %3, align 4
  br label %75

69:                                               ; preds = %50
  br label %70

70:                                               ; preds = %69
  %71 = load i32, ptr %6, align 4
  %72 = add i32 %71, 1
  store i32 %72, ptr %6, align 4
  br label %40, !llvm.loop !9

73:                                               ; preds = %40
  br label %74

74:                                               ; preds = %73, %23
  store i32 0, ptr %3, align 4
  br label %75

75:                                               ; preds = %74, %65, %19, %10
  %76 = load i32, ptr %3, align 4
  ret i32 %76
}

; Function Attrs: nounwind uwtable
define void @col_set_time(ptr noundef %0, i32 noundef %1, ptr noundef %2, ptr noundef %3) #0 {
  %5 = alloca ptr, align 8
  %6 = alloca i32, align 4
  %7 = alloca ptr, align 8
  %8 = alloca ptr, align 8
  %9 = alloca i32, align 4
  %10 = alloca ptr, align 8
  store ptr %0, ptr %5, align 8
  store i32 %1, ptr %6, align 4
  store ptr %2, ptr %7, align 8
  store ptr %3, ptr %8, align 8
  %11 = load ptr, ptr %5, align 8
  %12 = load i32, ptr %6, align 4
  %13 = call i32 @col_get_writable(ptr noundef %11, i32 noundef %12)
  %14 = icmp ne i32 %13, 0
  br i1 %14, label %15, label %24

15:                                               ; preds = %4
  %16 = load ptr, ptr %5, align 8
  %17 = getelementptr inbounds %struct.epan_column_info, ptr %16, i32 0, i32 3
  %18 = load ptr, ptr %17, align 8
  %19 = load i32, ptr %6, align 4
  %20 = sext i32 %19 to i64
  %21 = getelementptr i32, ptr %18, i64 %20
  %22 = load i32, ptr %21, align 4
  %23 = icmp sge i32 %22, 0
  br i1 %23, label %25, label %24

24:                                               ; preds = %15, %4
  br label %93

25:                                               ; preds = %15
  %26 = load ptr, ptr %5, align 8
  %27 = getelementptr inbounds %struct.epan_column_info, ptr %26, i32 0, i32 3
  %28 = load ptr, ptr %27, align 8
  %29 = load i32, ptr %6, align 4
  %30 = sext i32 %29 to i64
  %31 = getelementptr i32, ptr %28, i64 %30
  %32 = load i32, ptr %31, align 4
  store i32 %32, ptr %9, align 4
  br label %33

33:                                               ; preds = %90, %25
  %34 = load i32, ptr %9, align 4
  %35 = load ptr, ptr %5, align 8
  %36 = getelementptr inbounds %struct.epan_column_info, ptr %35, i32 0, i32 4
  %37 = load ptr, ptr %36, align 8
  %38 = load i32, ptr %6, align 4
  %39 = sext i32 %38 to i64
  %40 = getelementptr i32, ptr %37, i64 %39
  %41 = load i32, ptr %40, align 4
  %42 = icmp sle i32 %34, %41
  br i1 %42, label %43, label %93

43:                                               ; preds = %33
  %44 = load ptr, ptr %5, align 8
  %45 = getelementptr inbounds %struct.epan_column_info, ptr %44, i32 0, i32 2
  %46 = load ptr, ptr %45, align 8
  %47 = load i32, ptr %9, align 4
  %48 = sext i32 %47 to i64
  %49 = getelementptr %struct.col_item_t, ptr %46, i64 %48
  store ptr %49, ptr %10, align 8
  %50 = load ptr, ptr %10, align 8
  %51 = getelementptr inbounds %struct.col_item_t, ptr %50, i32 0, i32 1
  %52 = load ptr, ptr %51, align 8
  %53 = load i32, ptr %6, align 4
  %54 = sext i32 %53 to i64
  %55 = getelementptr i32, ptr %52, i64 %54
  %56 = load i32, ptr %55, align 4
  %57 = icmp ne i32 %56, 0
  br i1 %57, label %58, label %89

58:                                               ; preds = %43
  %59 = load ptr, ptr %10, align 8
  %60 = getelementptr inbounds %struct.col_item_t, ptr %59, i32 0, i32 8
  %61 = load ptr, ptr %60, align 8
  %62 = load ptr, ptr %7, align 8
  %63 = call i32 @get_default_timestamp_precision()
  call void @display_signed_time(ptr noundef %61, i64 noundef 2048, ptr noundef %62, i32 noundef %63)
  %64 = load ptr, ptr %10, align 8
  %65 = getelementptr inbounds %struct.col_item_t, ptr %64, i32 0, i32 8
  %66 = load ptr, ptr %65, align 8
  %67 = load ptr, ptr %10, align 8
  %68 = getelementptr inbounds %struct.col_item_t, ptr %67, i32 0, i32 7
  store ptr %66, ptr %68, align 8
  %69 = load ptr, ptr %8, align 8
  %70 = load ptr, ptr %5, align 8
  %71 = getelementptr inbounds %struct.epan_column_info, ptr %70, i32 0, i32 5
  %72 = getelementptr inbounds %struct.col_expr_t, ptr %71, i32 0, i32 0
  %73 = load ptr, ptr %72, align 8
  %74 = load i32, ptr %9, align 4
  %75 = sext i32 %74 to i64
  %76 = getelementptr ptr, ptr %73, i64 %75
  store ptr %69, ptr %76, align 8
  %77 = load ptr, ptr %5, align 8
  %78 = getelementptr inbounds %struct.epan_column_info, ptr %77, i32 0, i32 5
  %79 = getelementptr inbounds %struct.col_expr_t, ptr %78, i32 0, i32 1
  %80 = load ptr, ptr %79, align 8
  %81 = load i32, ptr %9, align 4
  %82 = sext i32 %81 to i64
  %83 = getelementptr ptr, ptr %80, i64 %82
  %84 = load ptr, ptr %83, align 8
  %85 = load ptr, ptr %10, align 8
  %86 = getelementptr inbounds %struct.col_item_t, ptr %85, i32 0, i32 8
  %87 = load ptr, ptr %86, align 8
  %88 = call i64 @g_strlcpy(ptr noundef %84, ptr noundef %87, i64 noundef 2048)
  br label %89

89:                                               ; preds = %58, %43
  br label %90

90:                                               ; preds = %89
  %91 = load i32, ptr %9, align 4
  %92 = add i32 %91, 1
  store i32 %92, ptr %9, align 4
  br label %33, !llvm.loop !28

93:                                               ; preds = %33, %24
  ret void
}