; Function Attrs: nounwind uwtable
define void @col_set_time(ptr noundef readonly %0, i32 noundef %1, ptr noundef %2, ptr noundef %3) local_unnamed_addr #0 {
  %5 = icmp eq ptr %0, null
  br i1 %5, label %col_get_writable.exit.thread, label %6

6:                                                ; preds = %4
  %7 = icmp eq i32 %1, -1
  %.phi.trans.insert.i = getelementptr inbounds nuw i8, ptr %0, i64 56
  %.pre.i = load i32, ptr %.phi.trans.insert.i, align 8
  br i1 %7, label %col_get_writable.exit, label %8

8:                                                ; preds = %6
  %9 = icmp eq i32 %.pre.i, 0
  br i1 %9, label %col_get_writable.exit.thread, label %10

10:                                               ; preds = %8
  %11 = getelementptr inbounds nuw i8, ptr %0, i64 24
  %12 = load ptr, ptr %11, align 8
  %13 = sext i32 %1 to i64
  %14 = getelementptr i32, ptr %12, i64 %13
  %15 = load i32, ptr %14, align 4
  %16 = icmp sgt i32 %15, -1
  br i1 %16, label %.preheader.i, label %col_get_writable.exit.thread

.preheader.i:                                     ; preds = %10
  %17 = getelementptr inbounds nuw i8, ptr %0, i64 32
  %18 = load ptr, ptr %17, align 8
  %19 = getelementptr i32, ptr %18, i64 %13
  %20 = load i32, ptr %19, align 4
  %.not22.i = icmp sgt i32 %15, %20
  br i1 %.not22.i, label %col_get_writable.exit.thread, label %.lr.ph.i

.lr.ph.i:                                         ; preds = %.preheader.i
  %21 = getelementptr inbounds nuw i8, ptr %0, i64 16
  %22 = load ptr, ptr %21, align 8
  br label %25

23:                                               ; preds = %25
  %24 = add i32 %.01723.i, 1
  %.not.i = icmp sgt i32 %24, %20
  br i1 %.not.i, label %col_get_writable.exit.thread, label %25, !llvm.loop !9

25:                                               ; preds = %23, %.lr.ph.i
  %.01723.i = phi i32 [ %15, %.lr.ph.i ], [ %24, %23 ]
  %26 = sext i32 %.01723.i to i64
  %27 = getelementptr %struct.col_item_t, ptr %22, i64 %26
  %28 = getelementptr inbounds nuw i8, ptr %27, i64 8
  %29 = load ptr, ptr %28, align 8
  %30 = getelementptr i32, ptr %29, i64 %13
  %31 = load i32, ptr %30, align 4
  %.not21.i = icmp eq i32 %31, 0
  br i1 %.not21.i, label %23, label %32

32:                                               ; preds = %25
  %33 = getelementptr inbounds nuw i8, ptr %27, i64 76
  %34 = load i32, ptr %33, align 4
  br label %col_get_writable.exit

col_get_writable.exit:                            ; preds = %6, %32
  %.0.i = phi i32 [ %34, %32 ], [ %.pre.i, %6 ]
  %.not = icmp eq i32 %.0.i, 0
  br i1 %.not, label %col_get_writable.exit.thread, label %35

35:                                               ; preds = %col_get_writable.exit
  %36 = getelementptr inbounds nuw i8, ptr %0, i64 24
  %37 = load ptr, ptr %36, align 8
  %38 = sext i32 %1 to i64
  %39 = getelementptr i32, ptr %37, i64 %38
  %40 = load i32, ptr %39, align 4
  %41 = icmp sgt i32 %40, -1
  br i1 %41, label %.preheader, label %col_get_writable.exit.thread

.preheader:                                       ; preds = %35
  %42 = getelementptr inbounds nuw i8, ptr %0, i64 32
  %43 = load ptr, ptr %42, align 8
  %44 = getelementptr i32, ptr %43, i64 %38
  %45 = load i32, ptr %44, align 4
  %.not2431 = icmp sgt i32 %40, %45
  br i1 %.not2431, label %col_get_writable.exit.thread, label %.lr.ph

.lr.ph:                                           ; preds = %.preheader
  %46 = getelementptr inbounds nuw i8, ptr %0, i64 16
  %47 = getelementptr inbounds nuw i8, ptr %0, i64 40
  %48 = getelementptr inbounds nuw i8, ptr %0, i64 48
  br label %49

49:                                               ; preds = %.lr.ph, %75
  %50 = phi ptr [ %43, %.lr.ph ], [ %76, %75 ]
  %.032 = phi i32 [ %40, %.lr.ph ], [ %77, %75 ]
  %51 = load ptr, ptr %46, align 8
  %52 = sext i32 %.032 to i64
  %53 = getelementptr %struct.col_item_t, ptr %51, i64 %52
  %54 = getelementptr inbounds nuw i8, ptr %53, i64 8
  %55 = load ptr, ptr %54, align 8
  %56 = getelementptr i32, ptr %55, i64 %38
  %57 = load i32, ptr %56, align 4
  %.not25 = icmp eq i32 %57, 0
  br i1 %.not25, label %75, label %58

58:                                               ; preds = %49
  %59 = getelementptr inbounds nuw i8, ptr %53, i64 64
  %60 = load ptr, ptr %59, align 8
  %61 = tail call i32 @timestamp_get_precision() #16
  %62 = icmp eq i32 %61, -1
  br i1 %62, label %get_default_timestamp_precision.exit, label %63

63:                                               ; preds = %58
  %64 = icmp slt i32 %61, 0
  br i1 %64, label %65, label %get_default_timestamp_precision.exit

65:                                               ; preds = %63
  tail call void (ptr, i32, ptr, i64, ptr, ptr, ...) @ws_log_fatal_full(ptr noundef nonnull @.str.1, i32 noundef 7, ptr noundef nonnull @.str.7, i64 noundef 1006, ptr noundef nonnull @__func__.get_default_timestamp_precision, ptr noundef nonnull @.str.9) #19
  unreachable

get_default_timestamp_precision.exit:             ; preds = %58, %63
  %.0.i26 = phi i32 [ %61, %63 ], [ 9, %58 ]
  %spec.store.select.i = tail call range(i32 0, 10) i32 @llvm.umin.i32(i32 %.0.i26, i32 9)
  tail call void @display_signed_time(ptr noundef %60, i64 noundef 2048, ptr noundef %2, i32 noundef %spec.store.select.i) #16
  %66 = load ptr, ptr %59, align 8
  %67 = getelementptr inbounds nuw i8, ptr %53, i64 56
  store ptr %66, ptr %67, align 8
  %68 = load ptr, ptr %47, align 8
  %69 = getelementptr ptr, ptr %68, i64 %52
  store ptr %3, ptr %69, align 8
  %70 = load ptr, ptr %48, align 8
  %71 = getelementptr ptr, ptr %70, i64 %52
  %72 = load ptr, ptr %71, align 8
  %73 = load ptr, ptr %59, align 8
  %74 = tail call i64 @g_strlcpy(ptr noundef %72, ptr noundef %73, i64 noundef 2048) #16
  %.pre = load ptr, ptr %42, align 8
  br label %75

75:                                               ; preds = %49, %get_default_timestamp_precision.exit
  %76 = phi ptr [ %50, %49 ], [ %.pre, %get_default_timestamp_precision.exit ]
  %77 = add i32 %.032, 1
  %78 = getelementptr i32, ptr %76, i64 %38
  %79 = load i32, ptr %78, align 4
  %.not24 = icmp sgt i32 %77, %79
  br i1 %.not24, label %col_get_writable.exit.thread, label %49, !llvm.loop !28

col_get_writable.exit.thread:                     ; preds = %23, %75, %.preheader, %8, %.preheader.i, %10, %4, %col_get_writable.exit, %35
  ret void
}